; Function Attrs: mustprogress uwtable
define hidden noundef zeroext i1 @_ZN7nanogui10ImagePanel18mouse_button_eventERKNS_5ArrayIiLm2EEEibi(ptr noundef nonnull align 8 dereferenceable(216) %0, ptr nocapture noundef nonnull readonly align 4 dereferenceable(8) %1, i32 %2, i1 noundef zeroext %3, i32 %4) unnamed_addr #0 align 2 personality ptr @__gxx_personality_v0 {
  %6 = alloca i32, align 4
  %7 = tail call noundef i32 @_ZNK7nanogui10ImagePanel18index_for_positionERKNS_5ArrayIiLm2EEE(ptr noundef nonnull align 8 dereferenceable(216) %0, ptr noundef nonnull align 4 dereferenceable(8) %1)
  %8 = icmp sgt i32 %7, -1
  br i1 %8, label %9, label %26

9:                                                ; preds = %5
  %10 = getelementptr inbounds i8, ptr %0, i64 144
  %11 = getelementptr inbounds i8, ptr %0, i64 152
  %12 = load ptr, ptr %11, align 8
  %13 = load ptr, ptr %10, align 8
  %14 = ptrtoint ptr %12 to i64
  %15 = ptrtoint ptr %13 to i64
  %16 = sub i64 %14, %15
  %17 = sdiv exact i64 %16, 40
  %18 = trunc i64 %17 to i32
  %19 = icmp slt i32 %7, %18
  br i1 %19, label %20, label %26

20:                                               ; preds = %9
  %21 = getelementptr inbounds i8, ptr %0, i64 184
  %22 = load ptr, ptr %21, align 8
  %.not.i.i.not = icmp ne ptr %22, null
  %brmerge.not = and i1 %.not.i.i.not, %3
  br i1 %brmerge.not, label %_ZNKSt8functionIFviEEclEi.exit, label %26

_ZNKSt8functionIFviEEclEi.exit:                   ; preds = %20
  %23 = getelementptr inbounds i8, ptr %0, i64 168
  call void @llvm.lifetime.start.p0(i64 4, ptr nonnull %6)
  store i32 %7, ptr %6, align 4
  %24 = getelementptr inbounds i8, ptr %0, i64 192
  %25 = load ptr, ptr %24, align 8
  call void %25(ptr noundef nonnull align 8 dereferenceable(16) %23, ptr noundef nonnull align 4 dereferenceable(4) %6)
  call void @llvm.lifetime.end.p0(i64 4, ptr nonnull %6)
  br label %26

26:                                               ; preds = %20, %_ZNKSt8functionIFviEEclEi.exit, %9, %5
  ret i1 true
}